target datalayout = "e-m:e-p270:32:32-p271:32:32-p272:64:64-i64:64-i128:128-f80:128-n8:16:32:64-S128"
target triple = "x86_64-pc-linux-gnu"

%struct.expert_field = type { i32, i32 }
%struct._packet_info = type { ptr, ptr, i32, i32, %struct.nstime_t, %struct.nstime_t, %struct.nstime_t, i8, ptr, ptr, ptr, ptr, %struct._address, %struct._address, %struct._address, %struct._address, %struct._address, %struct._address, i32, ptr, i8, [3 x i8], %struct.anon, i32, i32, i32, i32, ptr, i8, ptr, ptr, i16, i16, i32, i32, i16, i32, i32, ptr, ptr, ptr, i8, i8, i16, i16, i16, i32, i16, i16, ptr, ptr, ptr, ptr, ptr, i32, i32 }
%struct.nstime_t = type { i64, i32 }
%struct._address = type { i32, i32, ptr, ptr }
%struct.anon = type { i8, [3 x i8] }

@ei_bgp_length_invalid = internal global %struct.expert_field zeroinitializer, align 4
@hf_bgp_prefix_length = internal global i32 0, align 4
@ett_bgp_prefix = internal global i32 0, align 4
@.str.1843 = private unnamed_addr constant [28 x i8] c"%s length %u invalid (> 32)\00", align 1
@.str.1844 = private unnamed_addr constant [17 x i8] c"%s/%u PathId %u \00", align 1

; Function Attrs: inlinehint nounwind null_pointer_is_valid sspstrong uwtable
define internal void @set_address(ptr noundef %0, i32 noundef %1, i32 noundef %2, ptr noundef %3) #4 {
  %5 = alloca ptr, align 8
  %6 = alloca i32, align 4
  %7 = alloca i32, align 4
  %8 = alloca ptr, align 8
  store ptr %0, ptr %5, align 8
  store i32 %1, ptr %6, align 4
  store i32 %2, ptr %7, align 4
  store ptr %3, ptr %8, align 8
  %9 = load i32, ptr %7, align 4
  %10 = icmp eq i32 %9, 0
  br i1 %10, label %11, label %14

11:                                               ; preds = %4
  br label %12

12:                                               ; preds = %11
  br label %13

13:                                               ; preds = %12
  br label %19

14:                                               ; preds = %4
  br label %15

15:                                               ; preds = %14
  br label %16

16:                                               ; preds = %15
  br label %17

17:                                               ; preds = %16
  br label %18

18:                                               ; preds = %17
  br label %19

19:                                               ; preds = %18, %13
  %20 = load i32, ptr %6, align 4
  %21 = load ptr, ptr %5, align 8
  %22 = getelementptr inbounds nuw %struct._address, ptr %21, i32 0, i32 0
  store i32 %20, ptr %22, align 8
  %23 = load i32, ptr %7, align 4
  %24 = load ptr, ptr %5, align 8
  %25 = getelementptr inbounds nuw %struct._address, ptr %24, i32 0, i32 1
  store i32 %23, ptr %25, align 4
  %26 = load ptr, ptr %8, align 8
  %27 = load ptr, ptr %5, align 8
  %28 = getelementptr inbounds nuw %struct._address, ptr %27, i32 0, i32 2
  store ptr %26, ptr %28, align 8
  %29 = load ptr, ptr %5, align 8
  %30 = getelementptr inbounds nuw %struct._address, ptr %29, i32 0, i32 3
  store ptr null, ptr %30, align 8
  ret void
}

; Function Attrs: null_pointer_is_valid sspstrong uwtable
define internal i32 @decode_path_prefix4(ptr noundef %0, ptr noundef %1, i32 noundef %2, i32 noundef %3, ptr noundef %4, i32 noundef %5, ptr noundef %6) #0 {
  %8 = alloca i32, align 4
  %9 = alloca ptr, align 8
  %10 = alloca ptr, align 8
  %11 = alloca i32, align 4
  %12 = alloca i32, align 4
  %13 = alloca ptr, align 8
  %14 = alloca i32, align 4
  %15 = alloca ptr, align 8
  %16 = alloca ptr, align 8
  %17 = alloca i32, align 4
  %18 = alloca i8, align 1
  %19 = alloca i32, align 4
  %20 = alloca i32, align 4
  %21 = alloca %struct._address, align 8
  %22 = alloca i32, align 4
  store ptr %0, ptr %9, align 8
  store ptr %1, ptr %10, align 8
  store i32 %2, ptr %11, align 4
  store i32 %3, ptr %12, align 4
  store ptr %4, ptr %13, align 8
  store i32 %5, ptr %14, align 4
  store ptr %6, ptr %15, align 8
  call void @llvm.lifetime.start.p0(i64 8, ptr %16) #6
  call void @llvm.lifetime.start.p0(i64 4, ptr %17) #6
  call void @llvm.lifetime.start.p0(i64 1, ptr %18) #6
  call void @llvm.lifetime.start.p0(i64 4, ptr %19) #6
  call void @llvm.lifetime.start.p0(i64 4, ptr %20) #6
  call void @llvm.lifetime.start.p0(i64 24, ptr %21) #6
  %23 = load ptr, ptr %13, align 8
  %24 = load i32, ptr %14, align 4
  %25 = call i32 @tvb_get_ntohl(ptr noundef %23, i32 noundef %24)
  store i32 %25, ptr %20, align 4
  %26 = load ptr, ptr %13, align 8
  %27 = load i32, ptr %14, align 4
  %28 = add i32 %27, 4
  %29 = call zeroext i8 @tvb_get_uint8(ptr noundef %26, i32 noundef %28)
  store i8 %29, ptr %18, align 1
  %30 = load ptr, ptr %13, align 8
  %31 = load i32, ptr %14, align 4
  %32 = add i32 %31, 4
  %33 = add i32 %32, 1
  %34 = load i8, ptr %18, align 1
  %35 = zext i8 %34 to i32
  %36 = call i32 @tvb_get_ipv4_addr_with_prefix_len(ptr noundef %30, i32 noundef %33, ptr noundef %17, i32 noundef %35)
  store i32 %36, ptr %19, align 4
  %37 = load i32, ptr %19, align 4
  %38 = icmp slt i32 %37, 0
  br i1 %38, label %39, label %49

39:                                               ; preds = %7
  %40 = load ptr, ptr %9, align 8
  %41 = load ptr, ptr %10, align 8
  %42 = load ptr, ptr %13, align 8
  %43 = load i32, ptr %14, align 4
  %44 = add i32 %43, 4
  %45 = load ptr, ptr %15, align 8
  %46 = load i8, ptr %18, align 1
  %47 = zext i8 %46 to i32
  %48 = call ptr (ptr, ptr, ptr, ptr, i32, i32, ptr, ...) @proto_tree_add_expert_format(ptr noundef %40, ptr noundef %41, ptr noundef @ei_bgp_length_invalid, ptr noundef %42, i32 noundef %44, i32 noundef 1, ptr noundef @.str.1843, ptr noundef %45, i32 noundef %47)
  store i32 -1, ptr %8, align 4
  store i32 1, ptr %22, align 4
  br label %86

49:                                               ; preds = %7
  call void @set_address(ptr noundef %21, i32 noundef 2, i32 noundef 4, ptr noundef %17)
  %50 = load ptr, ptr %9, align 8
  %51 = load ptr, ptr %13, align 8
  %52 = load i32, ptr %14, align 4
  %53 = load i32, ptr %19, align 4
  %54 = add i32 5, %53
  %55 = load i32, ptr @ett_bgp_prefix, align 4
  %56 = load ptr, ptr %10, align 8
  %57 = getelementptr inbounds nuw %struct._packet_info, ptr %56, i32 0, i32 51
  %58 = load ptr, ptr %57, align 8
  %59 = call ptr @address_to_str(ptr noundef %58, ptr noundef %21)
  %60 = load i8, ptr %18, align 1
  %61 = zext i8 %60 to i32
  %62 = load i32, ptr %20, align 4
  %63 = call ptr (ptr, ptr, i32, i32, i32, ptr, ptr, ...) @proto_tree_add_subtree_format(ptr noundef %50, ptr noundef %51, i32 noundef %52, i32 noundef %54, i32 noundef %55, ptr noundef null, ptr noundef @.str.1844, ptr noundef %59, i32 noundef %61, i32 noundef %62)
  store ptr %63, ptr %16, align 8
  %64 = load ptr, ptr %16, align 8
  %65 = load i32, ptr %11, align 4
  %66 = load ptr, ptr %13, align 8
  %67 = load i32, ptr %14, align 4
  %68 = call ptr @proto_tree_add_item(ptr noundef %64, i32 noundef %65, ptr noundef %66, i32 noundef %67, i32 noundef 4, i32 noundef 0)
  %69 = load ptr, ptr %16, align 8
  %70 = load i32, ptr @hf_bgp_prefix_length, align 4
  %71 = load ptr, ptr %13, align 8
  %72 = load i32, ptr %14, align 4
  %73 = add i32 %72, 4
  %74 = call ptr @proto_tree_add_item(ptr noundef %69, i32 noundef %70, ptr noundef %71, i32 noundef %73, i32 noundef 1, i32 noundef 0)
  %75 = load ptr, ptr %16, align 8
  %76 = load i32, ptr %12, align 4
  %77 = load ptr, ptr %13, align 8
  %78 = load i32, ptr %14, align 4
  %79 = add i32 %78, 4
  %80 = add i32 %79, 1
  %81 = load i32, ptr %19, align 4
  %82 = load i32, ptr %17, align 4
  %83 = call ptr @proto_tree_add_ipv4(ptr noundef %75, i32 noundef %76, ptr noundef %77, i32 noundef %80, i32 noundef %81, i32 noundef %82)
  %84 = load i32, ptr %19, align 4
  %85 = add i32 5, %84
  store i32 %85, ptr %8, align 4
  store i32 1, ptr %22, align 4
  br label %86

86:                                               ; preds = %49, %39
  call void @llvm.lifetime.end.p0(i64 24, ptr %21) #6
  call void @llvm.lifetime.end.p0(i64 4, ptr %20) #6
  call void @llvm.lifetime.end.p0(i64 4, ptr %19) #6
  call void @llvm.lifetime.end.p0(i64 1, ptr %18) #6
  call void @llvm.lifetime.end.p0(i64 4, ptr %17) #6
  call void @llvm.lifetime.end.p0(i64 8, ptr %16) #6
  %87 = load i32, ptr %8, align 4
  ret i32 %87
}