; Function Attrs: null_pointer_is_valid sspstrong uwtable
define internal fastcc range(i32 -1, -2147483643) i32 @decode_path_prefix4(ptr noundef %0, ptr noundef %1, i32 noundef %2, i32 noundef %3, ptr noundef %4, i32 noundef %5, ptr noundef %6) unnamed_addr #0 {
  %8 = alloca i32, align 4
  %9 = alloca %struct._address, align 8
  call void @llvm.lifetime.start.p0(i64 4, ptr nonnull %8) #5
  call void @llvm.lifetime.start.p0(i64 24, ptr nonnull %9) #5
  %10 = tail call i32 @tvb_get_ntohl(ptr noundef %4, i32 noundef %5)
  %11 = add i32 %5, 4
  %12 = tail call zeroext i8 @tvb_get_uint8(ptr noundef %4, i32 noundef %11)
  %13 = add i32 %5, 5
  %14 = zext i8 %12 to i32
  %15 = call i32 @tvb_get_ipv4_addr_with_prefix_len(ptr noundef %4, i32 noundef %13, ptr noundef nonnull %8, i32 noundef %14)
  %16 = icmp slt i32 %15, 0
  br i1 %16, label %17, label %19

17:                                               ; preds = %7
  %18 = call ptr (ptr, ptr, ptr, ptr, i32, i32, ptr, ...) @proto_tree_add_expert_format(ptr noundef %0, ptr noundef %1, ptr noundef nonnull @ei_bgp_length_invalid, ptr noundef %4, i32 noundef %11, i32 noundef 1, ptr noundef nonnull @.str.1843, ptr noundef %6, i32 noundef %14)
  br label %34

19:                                               ; preds = %7
  store i32 2, ptr %9, align 8
  %20 = getelementptr inbounds nuw i8, ptr %9, i64 4
  store i32 4, ptr %20, align 4
  %21 = getelementptr inbounds nuw i8, ptr %9, i64 8
  store ptr %8, ptr %21, align 8
  %22 = getelementptr inbounds nuw i8, ptr %9, i64 16
  store ptr null, ptr %22, align 8
  %23 = add nuw i32 %15, 5
  %24 = load i32, ptr @ett_bgp_prefix, align 4
  %25 = getelementptr inbounds nuw i8, ptr %1, i64 408
  %26 = load ptr, ptr %25, align 8
  %27 = call ptr @address_to_str(ptr noundef %26, ptr noundef nonnull %9)
  %28 = call ptr (ptr, ptr, i32, i32, i32, ptr, ptr, ...) @proto_tree_add_subtree_format(ptr noundef %0, ptr noundef %4, i32 noundef %5, i32 noundef %23, i32 noundef %24, ptr noundef null, ptr noundef nonnull @.str.1844, ptr noundef %27, i32 noundef %14, i32 noundef %10)
  %29 = call ptr @proto_tree_add_item(ptr noundef %28, i32 noundef %2, ptr noundef %4, i32 noundef %5, i32 noundef 4, i32 noundef 0)
  %30 = load i32, ptr @hf_bgp_prefix_length, align 4
  %31 = call ptr @proto_tree_add_item(ptr noundef %28, i32 noundef %30, ptr noundef %4, i32 noundef %11, i32 noundef 1, i32 noundef 0)
  %32 = load i32, ptr %8, align 4
  %33 = call ptr @proto_tree_add_ipv4(ptr noundef %28, i32 noundef %3, ptr noundef %4, i32 noundef %13, i32 noundef %15, i32 noundef %32)
  br label %34

34:                                               ; preds = %19, %17
  %.0 = phi i32 [ -1, %17 ], [ %23, %19 ]
  call void @llvm.lifetime.end.p0(i64 24, ptr nonnull %9) #5
  call void @llvm.lifetime.end.p0(i64 4, ptr nonnull %8) #5
  ret i32 %.0
}